; Function Attrs: nounwind uwtable
define noalias noundef ptr @Vec_WrdReadTextOut(ptr noundef %0, i32 noundef %1) local_unnamed_addr #0 {
  %3 = tail call ptr @Vec_WrdReadNumsOut(ptr noundef %0, i32 noundef 1)
  %4 = icmp eq ptr %3, null
  br i1 %4, label %39, label %5

5:                                                ; preds = %2
  %6 = getelementptr i8, ptr %3, i64 4
  %.val23 = load i32, ptr %6, align 4, !tbaa !13
  %7 = add nsw i32 %.val23, 63
  %8 = sdiv i32 %7, 64
  %9 = mul nsw i32 %8, %1
  %10 = tail call noalias dereferenceable_or_null(16) ptr @malloc(i64 noundef 16) #25
  %11 = add i32 %9, -1
  %or.cond.i.i = icmp ult i32 %11, 15
  %spec.store.select.i.i = select i1 %or.cond.i.i, i32 16, i32 %9
  store i32 %spec.store.select.i.i, ptr %10, align 8, !tbaa !56
  %.not.i.i = icmp eq i32 %spec.store.select.i.i, 0
  br i1 %.not.i.i, label %Vec_WrdStart.exit, label %12

12:                                               ; preds = %5
  %13 = sext i32 %spec.store.select.i.i to i64
  %14 = shl nsw i64 %13, 3
  %15 = tail call noalias ptr @malloc(i64 noundef %14) #25
  br label %Vec_WrdStart.exit

Vec_WrdStart.exit:                                ; preds = %5, %12
  %16 = phi ptr [ %15, %12 ], [ null, %5 ]
  %17 = getelementptr inbounds nuw i8, ptr %10, i64 4
  %18 = getelementptr inbounds nuw i8, ptr %10, i64 8
  store ptr %16, ptr %18, align 8, !tbaa !59
  store i32 %9, ptr %17, align 4, !tbaa !60
  %19 = sext i32 %9 to i64
  %20 = shl nsw i64 %19, 3
  tail call void @llvm.memset.p0.i64(ptr align 8 %16, i8 0, i64 %20, i1 false)
  %21 = icmp sgt i32 %.val23, 0
  %22 = getelementptr i8, ptr %3, i64 8
  %.val24 = load ptr, ptr %22, align 8, !tbaa !17
  br i1 %21, label %.lr.ph, label %.critedge

.lr.ph:                                           ; preds = %Vec_WrdStart.exit
  %wide.trip.count = zext nneg i32 %.val23 to i64
  br label %23

23:                                               ; preds = %.lr.ph, %23
  %indvars.iv = phi i64 [ 0, %.lr.ph ], [ %indvars.iv.next, %23 ]
  %24 = getelementptr inbounds nuw i32, ptr %.val24, i64 %indvars.iv
  %25 = load i32, ptr %24, align 4, !tbaa !12
  %26 = mul nsw i32 %25, %8
  %27 = sext i32 %26 to i64
  %28 = getelementptr inbounds i64, ptr %16, i64 %27
  %29 = and i64 %indvars.iv, 63
  %30 = shl nuw i64 1, %29
  %31 = lshr i64 %indvars.iv, 6
  %32 = and i64 %31, 67108863
  %33 = getelementptr inbounds nuw i64, ptr %28, i64 %32
  %34 = load i64, ptr %33, align 8, !tbaa !62
  %35 = xor i64 %34, %30
  store i64 %35, ptr %33, align 8, !tbaa !62
  %indvars.iv.next = add nuw nsw i64 %indvars.iv, 1
  %exitcond.not = icmp eq i64 %indvars.iv.next, %wide.trip.count
  br i1 %exitcond.not, label %.critedge.thread, label %23, !llvm.loop !70

.critedge:                                        ; preds = %Vec_WrdStart.exit
  %.not.i = icmp eq ptr %.val24, null
  br i1 %.not.i, label %Vec_IntFree.exit, label %.critedge.thread

.critedge.thread:                                 ; preds = %23, %.critedge
  tail call void @free(ptr noundef nonnull %.val24) #24
  br label %Vec_IntFree.exit

Vec_IntFree.exit:                                 ; preds = %.critedge, %.critedge.thread
  tail call void @free(ptr noundef nonnull %3) #24
  %36 = shl nsw i32 %8, 6
  %37 = sub nsw i32 %36, %.val23
  %38 = tail call i32 (ptr, ...) @printf(ptr noundef nonnull dereferenceable(1) @.str.13, i32 noundef %8, i32 noundef %1, i32 noundef %37)
  br label %39

39:                                               ; preds = %2, %Vec_IntFree.exit
  %.0 = phi ptr [ %10, %Vec_IntFree.exit ], [ null, %2 ]
  ret ptr %.0
}